target datalayout = "e-m:e-p270:32:32-p271:32:32-p272:64:64-i64:64-i128:128-f80:128-n8:16:32:64-S128"
target triple = "x86_64-pc-linux-gnu"

; Function Attrs: noinline nounwind uwtable
define internal void @dgemv_kernel_4x4(i64 noundef %0, ptr noundef %1, ptr noundef %2, ptr noundef %3) #2 {
  %5 = alloca i64, align 8
  %6 = alloca ptr, align 8
  %7 = alloca ptr, align 8
  %8 = alloca ptr, align 8
  %9 = alloca i64, align 8
  store i64 %0, ptr %5, align 8, !tbaa !3
  store ptr %1, ptr %6, align 8, !tbaa !33
  store ptr %2, ptr %7, align 8, !tbaa !9
  store ptr %3, ptr %8, align 8, !tbaa !9
  call void @llvm.lifetime.start.p0(i64 8, ptr %9) #4
  store i64 0, ptr %9, align 8, !tbaa !3
  %10 = load i64, ptr %9, align 8, !tbaa !3
  %11 = load i64, ptr %5, align 8, !tbaa !3
  %12 = load ptr, ptr %7, align 8, !tbaa !9
  %13 = load ptr, ptr %8, align 8, !tbaa !9
  %14 = load ptr, ptr %6, align 8, !tbaa !33
  %15 = getelementptr inbounds ptr, ptr %14, i64 0
  %16 = load ptr, ptr %15, align 8, !tbaa !9
  %17 = load ptr, ptr %6, align 8, !tbaa !33
  %18 = getelementptr inbounds ptr, ptr %17, i64 1
  %19 = load ptr, ptr %18, align 8, !tbaa !9
  %20 = load ptr, ptr %6, align 8, !tbaa !33
  %21 = getelementptr inbounds ptr, ptr %20, i64 2
  %22 = load ptr, ptr %21, align 8, !tbaa !9
  %23 = load ptr, ptr %6, align 8, !tbaa !33
  %24 = getelementptr inbounds ptr, ptr %23, i64 3
  %25 = load ptr, ptr %24, align 8, !tbaa !9
  %26 = call { i64, i64 } asm sideeffect "vzeroupper\09\09\09         \0A\09vxorpd\09\09%ymm4 , %ymm4, %ymm4  \0A\09vxorpd\09\09%ymm5 , %ymm5, %ymm5  \0A\09vxorpd\09\09%ymm6 , %ymm6, %ymm6  \0A\09vxorpd\09\09%ymm7 , %ymm7, %ymm7  \0A\09testq          $$0x04, $1                      \0A\09jz             2f                    \0A\09vmovups\09($2,$0,8), %ymm12       \0A\09vfmadd231pd   ($4,$0,8), %ymm12, %ymm4      \0A\09vfmadd231pd   ($5,$0,8), %ymm12, %ymm5      \0A\09vfmadd231pd   ($6,$0,8), %ymm12, %ymm6      \0A\09vfmadd231pd   ($7,$0,8), %ymm12, %ymm7      \0A\09addq\09\09$$4 , $0\09  \09 \09      \0A\09subq\09        $$4 , $1\09\09\09      \0A\092:                                  \0A\09cmpq           $$0, $1                         \0A\09je             3f                      \0A\091:\09\09\09\09 \0A\09vmovups\09($2,$0,8), %ymm12       \0A\09vmovups      32($2,$0,8), %ymm13       \0A\09vfmadd231pd   ($4,$0,8), %ymm12, %ymm4      \0A\09vfmadd231pd   ($5,$0,8), %ymm12, %ymm5      \0A\09vfmadd231pd   ($6,$0,8), %ymm12, %ymm6      \0A\09vfmadd231pd   ($7,$0,8), %ymm12, %ymm7      \0A\09vfmadd231pd 32($4,$0,8), %ymm13, %ymm4      \0A\09vfmadd231pd 32($5,$0,8), %ymm13, %ymm5      \0A\09addq\09\09$$8 , $0\09  \09 \09       \0A\09vfmadd231pd -32($6,$0,8), %ymm13, %ymm6     \0A\09subq\09        $$8 , $1\09\09\09       \0A\09vfmadd231pd -32($7,$0,8), %ymm13, %ymm7     \0A\09jnz\09\091b\09\09      \0A\093:                                   \0A\09vextractf128   $$1 , %ymm4, %xmm12\09      \0A\09vextractf128   $$1 , %ymm5, %xmm13\09      \0A\09vextractf128   $$1 , %ymm6, %xmm14\09      \0A\09vextractf128   $$1 , %ymm7, %xmm15\09      \0A\09vaddpd\09\09%xmm4, %xmm12, %xmm4       \0A\09vaddpd\09\09%xmm5, %xmm13, %xmm5       \0A\09vaddpd\09\09%xmm6, %xmm14, %xmm6       \0A\09vaddpd\09\09%xmm7, %xmm15, %xmm7       \0A\09vhaddpd        %xmm4, %xmm4, %xmm4  \0A\09vhaddpd        %xmm5, %xmm5, %xmm5  \0A\09vhaddpd        %xmm6, %xmm6, %xmm6  \0A\09vhaddpd        %xmm7, %xmm7, %xmm7  \0A\09vmovsd         %xmm4,    ($3)         \0A\09vmovsd         %xmm5,   8($3)         \0A\09vmovsd         %xmm6,  16($3)         \0A\09vmovsd         %xmm7,  24($3)         \0A\09vzeroupper\09\09\09 \0A\09", "=r,=r,r,r,r,r,r,r,0,1,~{cc},~{xmm0},~{xmm1},~{xmm2},~{xmm3},~{xmm4},~{xmm5},~{xmm6},~{xmm7},~{xmm8},~{xmm9},~{xmm10},~{xmm11},~{xmm12},~{xmm13},~{xmm14},~{xmm15},~{memory},~{dirflag},~{fpsr},~{flags}"(ptr %12, ptr %13, ptr %16, ptr %19, ptr %22, ptr %25, i64 %10, i64 %11) #4, !srcloc !35
  %27 = extractvalue { i64, i64 } %26, 0
  %28 = extractvalue { i64, i64 } %26, 1
  store i64 %27, ptr %9, align 8, !tbaa !3
  store i64 %28, ptr %5, align 8, !tbaa !3
  call void @llvm.lifetime.end.p0(i64 8, ptr %9) #4
  ret void
}