; Function Attrs: noinline nounwind uwtable
define internal fastcc void @dgemv_kernel_4x4(i64 noundef range(i64 -3, 2049) %0, ptr noundef nonnull readonly captures(none) %1, ptr noundef %2, ptr noundef %3) unnamed_addr #2 {
  %5 = load ptr, ptr %1, align 8, !tbaa !9
  %6 = getelementptr inbounds nuw i8, ptr %1, i64 8
  %7 = load ptr, ptr %6, align 8, !tbaa !9
  %8 = getelementptr inbounds nuw i8, ptr %1, i64 16
  %9 = load ptr, ptr %8, align 8, !tbaa !9
  %10 = getelementptr inbounds nuw i8, ptr %1, i64 24
  %11 = load ptr, ptr %10, align 8, !tbaa !9
  %12 = tail call { i64, i64 } asm sideeffect "vzeroupper\09\09\09         \0A\09vxorpd\09\09%ymm4 , %ymm4, %ymm4  \0A\09vxorpd\09\09%ymm5 , %ymm5, %ymm5  \0A\09vxorpd\09\09%ymm6 , %ymm6, %ymm6  \0A\09vxorpd\09\09%ymm7 , %ymm7, %ymm7  \0A\09testq          $$0x04, $1                      \0A\09jz             2f                    \0A\09vmovups\09($2,$0,8), %ymm12       \0A\09vfmadd231pd   ($4,$0,8), %ymm12, %ymm4      \0A\09vfmadd231pd   ($5,$0,8), %ymm12, %ymm5      \0A\09vfmadd231pd   ($6,$0,8), %ymm12, %ymm6      \0A\09vfmadd231pd   ($7,$0,8), %ymm12, %ymm7      \0A\09addq\09\09$$4 , $0\09  \09 \09      \0A\09subq\09        $$4 , $1\09\09\09      \0A\092:                                  \0A\09cmpq           $$0, $1                         \0A\09je             3f                      \0A\091:\09\09\09\09 \0A\09vmovups\09($2,$0,8), %ymm12       \0A\09vmovups      32($2,$0,8), %ymm13       \0A\09vfmadd231pd   ($4,$0,8), %ymm12, %ymm4      \0A\09vfmadd231pd   ($5,$0,8), %ymm12, %ymm5      \0A\09vfmadd231pd   ($6,$0,8), %ymm12, %ymm6      \0A\09vfmadd231pd   ($7,$0,8), %ymm12, %ymm7      \0A\09vfmadd231pd 32($4,$0,8), %ymm13, %ymm4      \0A\09vfmadd231pd 32($5,$0,8), %ymm13, %ymm5      \0A\09addq\09\09$$8 , $0\09  \09 \09       \0A\09vfmadd231pd -32($6,$0,8), %ymm13, %ymm6     \0A\09subq\09        $$8 , $1\09\09\09       \0A\09vfmadd231pd -32($7,$0,8), %ymm13, %ymm7     \0A\09jnz\09\091b\09\09      \0A\093:                                   \0A\09vextractf128   $$1 , %ymm4, %xmm12\09      \0A\09vextractf128   $$1 , %ymm5, %xmm13\09      \0A\09vextractf128   $$1 , %ymm6, %xmm14\09      \0A\09vextractf128   $$1 , %ymm7, %xmm15\09      \0A\09vaddpd\09\09%xmm4, %xmm12, %xmm4       \0A\09vaddpd\09\09%xmm5, %xmm13, %xmm5       \0A\09vaddpd\09\09%xmm6, %xmm14, %xmm6       \0A\09vaddpd\09\09%xmm7, %xmm15, %xmm7       \0A\09vhaddpd        %xmm4, %xmm4, %xmm4  \0A\09vhaddpd        %xmm5, %xmm5, %xmm5  \0A\09vhaddpd        %xmm6, %xmm6, %xmm6  \0A\09vhaddpd        %xmm7, %xmm7, %xmm7  \0A\09vmovsd         %xmm4,    ($3)         \0A\09vmovsd         %xmm5,   8($3)         \0A\09vmovsd         %xmm6,  16($3)         \0A\09vmovsd         %xmm7,  24($3)         \0A\09vzeroupper\09\09\09 \0A\09", "=r,=r,r,r,r,r,r,r,0,1,~{cc},~{xmm0},~{xmm1},~{xmm2},~{xmm3},~{xmm4},~{xmm5},~{xmm6},~{xmm7},~{xmm8},~{xmm9},~{xmm10},~{xmm11},~{xmm12},~{xmm13},~{xmm14},~{xmm15},~{memory},~{dirflag},~{fpsr},~{flags}"(ptr %2, ptr %3, ptr %5, ptr %7, ptr %9, ptr %11, i64 0, i64 %0) #5, !srcloc !31
  ret void
}